target datalayout = "e-m:e-p270:32:32-p271:32:32-p272:64:64-i64:64-i128:128-f80:128-n8:16:32:64-S128"
target triple = "x86_64-pc-linux-gnu"

@.str.55 = private unnamed_addr constant [18 x i8] c"\0A\0AConsistent IC:\0A\00", align 1
@.str.56 = private unnamed_addr constant [6 x i8] c"\09y = \00", align 1
@.str.57 = private unnamed_addr constant [23 x i8] c"%12.4e %12.4e %12.4e \0A\00", align 1
@.str.58 = private unnamed_addr constant [6 x i8] c"\09yp= \00", align 1

; Function Attrs: nounwind uwtable
define internal void @PrintIC(ptr noundef %0, ptr noundef %1) #0 {
  %3 = alloca ptr, align 8
  %4 = alloca ptr, align 8
  %5 = alloca ptr, align 8
  store ptr %0, ptr %3, align 8, !tbaa !16
  store ptr %1, ptr %4, align 8, !tbaa !16
  call void @llvm.lifetime.start.p0(i64 8, ptr %5) #8
  %6 = load ptr, ptr %3, align 8, !tbaa !16
  %7 = call ptr @N_VGetArrayPointer(ptr noundef %6)
  store ptr %7, ptr %5, align 8, !tbaa !39
  %8 = call i32 (ptr, ...) @printf(ptr noundef @.str.55)
  %9 = call i32 (ptr, ...) @printf(ptr noundef @.str.56)
  %10 = load ptr, ptr %5, align 8, !tbaa !39
  %11 = getelementptr inbounds double, ptr %10, i64 0
  %12 = load double, ptr %11, align 8, !tbaa !20
  %13 = load ptr, ptr %5, align 8, !tbaa !39
  %14 = getelementptr inbounds double, ptr %13, i64 1
  %15 = load double, ptr %14, align 8, !tbaa !20
  %16 = load ptr, ptr %5, align 8, !tbaa !39
  %17 = getelementptr inbounds double, ptr %16, i64 2
  %18 = load double, ptr %17, align 8, !tbaa !20
  %19 = call i32 (ptr, ...) @printf(ptr noundef @.str.57, double noundef %12, double noundef %15, double noundef %18)
  %20 = load ptr, ptr %4, align 8, !tbaa !16
  %21 = call ptr @N_VGetArrayPointer(ptr noundef %20)
  store ptr %21, ptr %5, align 8, !tbaa !39
  %22 = call i32 (ptr, ...) @printf(ptr noundef @.str.58)
  %23 = load ptr, ptr %5, align 8, !tbaa !39
  %24 = getelementptr inbounds double, ptr %23, i64 0
  %25 = load double, ptr %24, align 8, !tbaa !20
  %26 = load ptr, ptr %5, align 8, !tbaa !39
  %27 = getelementptr inbounds double, ptr %26, i64 1
  %28 = load double, ptr %27, align 8, !tbaa !20
  %29 = load ptr, ptr %5, align 8, !tbaa !39
  %30 = getelementptr inbounds double, ptr %29, i64 2
  %31 = load double, ptr %30, align 8, !tbaa !20
  %32 = call i32 (ptr, ...) @printf(ptr noundef @.str.57, double noundef %25, double noundef %28, double noundef %31)
  call void @llvm.lifetime.end.p0(i64 8, ptr %5) #8
  ret void
}