; Function Attrs: nounwind uwtable
define internal fastcc void @PrintIC(ptr noundef %0, ptr noundef %1) unnamed_addr #0 {
  %3 = tail call ptr @N_VGetArrayPointer(ptr noundef %0) #15
  %puts = tail call i32 @puts(ptr nonnull dereferenceable(1) @str.8)
  %4 = tail call i32 (ptr, ...) @printf(ptr noundef nonnull dereferenceable(1) @.str.56)
  %5 = load double, ptr %3, align 8, !tbaa !11
  %6 = getelementptr inbounds nuw i8, ptr %3, i64 8
  %7 = load double, ptr %6, align 8, !tbaa !11
  %8 = getelementptr inbounds nuw i8, ptr %3, i64 16
  %9 = load double, ptr %8, align 8, !tbaa !11
  %10 = tail call i32 (ptr, ...) @printf(ptr noundef nonnull dereferenceable(1) @.str.57, double noundef %5, double noundef %7, double noundef %9)
  %11 = tail call ptr @N_VGetArrayPointer(ptr noundef %1) #15
  %12 = tail call i32 (ptr, ...) @printf(ptr noundef nonnull dereferenceable(1) @.str.58)
  %13 = load double, ptr %11, align 8, !tbaa !11
  %14 = getelementptr inbounds nuw i8, ptr %11, i64 8
  %15 = load double, ptr %14, align 8, !tbaa !11
  %16 = getelementptr inbounds nuw i8, ptr %11, i64 16
  %17 = load double, ptr %16, align 8, !tbaa !11
  %18 = tail call i32 (ptr, ...) @printf(ptr noundef nonnull dereferenceable(1) @.str.57, double noundef %13, double noundef %15, double noundef %17)
  ret void
}